Certificate:
    Data:
        Version: 3 (0x2)
        Serial Number: 68719476739 (0x1000000003)
    Signature Algorithm: ecdsa-with-SHA256
        Issuer: C=CN, ST=shanghai, O=hezhong, OU=hezhong, CN=secondeccCA/emailAddress=secondeccCA@160.com
        Validity
            Not Before: Apr 22 06:39:39 2019 GMT
            Not After : Apr 20 06:39:39 2024 GMT
        Subject: C=CN, ST=shanghai, O=hezhong, OU=hezhong, CN=single_tsp_server/emailAddress=sm2_single_tsp_server@160.com
        Subject Public Key Info:
            Public Key Algorithm: id-ecPublicKey
                Public-Key: (256 bit)
                pub:
                    04:9e:c5:0f:36:26:8f:d2:ca:51:2c:e6:d0:26:d4:
                    59:7f:93:84:74:f9:c6:d3:62:17:3c:fc:53:52:5a:
                    54:5f:86:18:eb:97:c3:ad:de:fb:07:9d:29:7e:71:
                    8a:bd:b1:7d:09:18:77:d0:1a:11:80:8d:99:83:c2:
                    51:d6:7c:45:97
                ASN1 OID: sm2p256v1
                NIST CURVE: SM2
        X509v3 extensions:
            X509v3 Basic Constraints: 
                CA:FALSE
            Netscape Cert Type: 
                SSL Client, S/MIME
            Netscape Comment: 
                OpenSSL Generated Client Certificate
            X509v3 Subject Key Identifier: 
                E3:4E:C8:A2:9A:E1:30:B1:8B:C1:37:C5:31:2F:BC:31:ED:07:7E:A5
            X509v3 Authority Key Identifier: 
                keyid:52:D5:30:0C:96:18:5A:6F:EA:2A:E6:54:95:62:07:31:C8:0E:9E:40

            X509v3 Key Usage: critical
                Digital Signature, Non Repudiation, Key Encipherment
            X509v3 Extended Key Usage: 
                TLS Web Client Authentication, E-mail Protection
    Signature Algorithm: ecdsa-with-SHA256
         30:46:02:21:00:84:6d:f4:49:2f:df:c2:41:38:61:83:ea:9b:
         72:54:46:d9:ea:4b:85:56:9f:95:bf:20:f2:51:3c:87:94:df:
         8e:02:21:00:8c:98:4d:06:77:19:e3:3b:ef:46:32:b6:4f:84:
         25:59:d8:51:f2:4d:f5:77:14:9a:2a:51:c1:93:c5:dc:32:c5
-----BEGIN CERTIFICATE-----
MIICxzCCAmygAwIBAgIFEAAAAAMwCgYIKoZIzj0EAwIwfjELMAkGA1UEBhMCQ04x
ETAPBgNVBAgMCHNoYW5naGFpMRAwDgYDVQQKDAdoZXpob25nMRAwDgYDVQQLDAdo
ZXpob25nMRQwEgYDVQQDDAtzZWNvbmRlY2NDQTEiMCAGCSqGSIb3DQEJARYTc2Vj
b25kZWNjQ0FAMTYwLmNvbTAeFw0xOTA0MjIwNjM5MzlaFw0yNDA0MjAwNjM5Mzla
MIGOMQswCQYDVQQGEwJDTjERMA8GA1UECAwIc2hhbmdoYWkxEDAOBgNVBAoMB2hl
emhvbmcxEDAOBgNVBAsMB2hlemhvbmcxGjAYBgNVBAMMEXNpbmdsZV90c3Bfc2Vy
dmVyMSwwKgYJKoZIhvcNAQkBFh1zbTJfc2luZ2xlX3RzcF9zZXJ2ZXJAMTYwLmNv
bTBZMBMGByqGSM49AgEGCCqBHM9VAYItA0IABJ7FDzYmj9LKUSzm0CbUWX+ThHT5
xtNiFzz8U1JaVF+GGOuXw63e+wedKX5xir2xfQkYd9AaEYCNmYPCUdZ8RZejgcUw
gcIwCQYDVR0TBAIwADARBglghkgBhvhCAQEEBAMCBaAwMwYJYIZIAYb4QgENBCYW
JE9wZW5TU0wgR2VuZXJhdGVkIENsaWVudCBDZXJ0aWZpY2F0ZTAdBgNVHQ4EFgQU
407IoprhMLGLwTfFMS+8Me0HfqUwHwYDVR0jBBgwFoAUUtUwDJYYWm/qKuZUlWIH
McgOnkAwDgYDVR0PAQH/BAQDAgXgMB0GA1UdJQQWMBQGCCsGAQUFBwMCBggrBgEF
BQcDBDAKBggqhkjOPQQDAgNJADBGAiEAhG30SS/fwkE4YYPqm3JURtnqS4VWn5W/
IPJRPIeU344CIQCMmE0GdxnjO+9GMrZPhCVZ2FHyTfV3FJoqUcGTxdwyxQ==
-----END CERTIFICATE-----
