Certificate:
    Data:
        Version: 3 (0x2)
        Serial Number: 68719476738 (0x1000000002)
    Signature Algorithm: ecdsa-with-SHA256
        Issuer: C=CN, ST=shanghai, O=hezhong, OU=hezhong, CN=secondeccCA/emailAddress=secondeccCA@160.com
        Validity
            Not Before: Apr 19 05:43:09 2019 GMT
            Not After : Apr 17 05:43:09 2024 GMT
        Subject: C=CN, ST=shanghai, O=hezhong, OU=hezhong, CN=tbox_client/emailAddress=ecc_tbox_client@160.com
        Subject Public Key Info:
            Public Key Algorithm: id-ecPublicKey
                Public-Key: (256 bit)
                pub:
                    04:35:97:4f:28:fb:9e:c0:5a:b6:96:44:8c:57:2c:
                    25:be:b1:e2:b7:2f:b1:bc:3a:d8:44:0f:4d:bf:47:
                    3c:d2:68:ad:a9:46:82:2b:88:4f:ad:66:6b:3a:42:
                    e3:f2:7f:62:e7:cb:9f:86:57:dc:c2:d4:25:b3:51:
                    b2:56:f1:ce:10
                ASN1 OID: sm2p256v1
                NIST CURVE: SM2
        X509v3 extensions:
            X509v3 Basic Constraints: 
                CA:FALSE
            Netscape Cert Type: 
                SSL Client, S/MIME
            Netscape Comment: 
                OpenSSL Generated Client Certificate
            X509v3 Subject Key Identifier: 
                52:2F:69:31:36:CA:07:4F:F3:09:14:17:A4:77:13:F3:FB:52:C5:F6
            X509v3 Authority Key Identifier: 
                keyid:52:D5:30:0C:96:18:5A:6F:EA:2A:E6:54:95:62:07:31:C8:0E:9E:40

            X509v3 Key Usage: critical
                Digital Signature, Non Repudiation, Key Encipherment
            X509v3 Extended Key Usage: 
                TLS Web Client Authentication, E-mail Protection
    Signature Algorithm: ecdsa-with-SHA256
         30:45:02:20:4f:a1:6a:2b:f7:75:29:85:fc:2b:5b:cc:cd:82:
         6e:78:4d:7c:94:0c:1a:a6:5c:dd:60:e6:64:b4:4c:19:12:05:
         02:21:00:f7:27:b1:23:d9:8b:b9:06:06:32:e3:59:bc:80:1c:
         9f:d6:ae:7b:4d:8d:6c:00:b1:61:11:08:79:f0:26:52:d8
-----BEGIN CERTIFICATE-----
MIICujCCAmCgAwIBAgIFEAAAAAIwCgYIKoZIzj0EAwIwfjELMAkGA1UEBhMCQ04x
ETAPBgNVBAgMCHNoYW5naGFpMRAwDgYDVQQKDAdoZXpob25nMRAwDgYDVQQLDAdo
ZXpob25nMRQwEgYDVQQDDAtzZWNvbmRlY2NDQTEiMCAGCSqGSIb3DQEJARYTc2Vj
b25kZWNjQ0FAMTYwLmNvbTAeFw0xOTA0MTkwNTQzMDlaFw0yNDA0MTcwNTQzMDla
MIGCMQswCQYDVQQGEwJDTjERMA8GA1UECAwIc2hhbmdoYWkxEDAOBgNVBAoMB2hl
emhvbmcxEDAOBgNVBAsMB2hlemhvbmcxFDASBgNVBAMMC3Rib3hfY2xpZW50MSYw
JAYJKoZIhvcNAQkBFhdlY2NfdGJveF9jbGllbnRAMTYwLmNvbTBZMBMGByqGSM49
AgEGCCqBHM9VAYItA0IABDWXTyj7nsBatpZEjFcsJb6x4rcvsbw62EQPTb9HPNJo
ralGgiuIT61mazpC4/J/YufLn4ZX3MLUJbNRslbxzhCjgcUwgcIwCQYDVR0TBAIw
ADARBglghkgBhvhCAQEEBAMCBaAwMwYJYIZIAYb4QgENBCYWJE9wZW5TU0wgR2Vu
ZXJhdGVkIENsaWVudCBDZXJ0aWZpY2F0ZTAdBgNVHQ4EFgQUUi9pMTbKB0/zCRQX
pHcT8/tSxfYwHwYDVR0jBBgwFoAUUtUwDJYYWm/qKuZUlWIHMcgOnkAwDgYDVR0P
AQH/BAQDAgXgMB0GA1UdJQQWMBQGCCsGAQUFBwMCBggrBgEFBQcDBDAKBggqhkjO
PQQDAgNIADBFAiBPoWor93UphfwrW8zNgm54TXyUDBqmXN1g5mS0TBkSBQIhAPcn
sSPZi7kGBjLjWbyAHJ/WrntNjWwAsWERCHnwJlLY
-----END CERTIFICATE-----
