Certificate:
    Data:
        Version: 3 (0x2)
        Serial Number: 68719476737 (0x1000000001)
    Signature Algorithm: ecdsa-with-SHA256
        Issuer: C=CN, ST=shanghai, O=hezhong, OU=hezhong, CN=secondeccCA/emailAddress=secondeccCA@160.com
        Validity
            Not Before: Apr 19 05:43:06 2019 GMT
            Not After : Apr 17 05:43:06 2024 GMT
        Subject: C=CN, ST=shanghai, O=hezhong, OU=hezhong, CN=tsp_server/emailAddress=ecc_tsp_server@160.com
        Subject Public Key Info:
            Public Key Algorithm: id-ecPublicKey
                Public-Key: (256 bit)
                pub:
                    04:e0:bf:4b:2a:8b:1f:f3:db:8b:39:93:49:90:44:
                    d9:4e:31:9d:b4:93:0c:87:8b:be:ce:c1:79:b4:41:
                    8e:3f:8a:11:64:9a:06:4b:ca:77:35:a4:28:e1:7a:
                    35:be:7b:95:c5:cd:14:e1:31:a0:f9:02:c7:97:ca:
                    d1:12:15:de:ed
                ASN1 OID: sm2p256v1
                NIST CURVE: SM2
        X509v3 extensions:
            X509v3 Basic Constraints: 
                CA:FALSE
            Netscape Cert Type: 
                SSL Server
            Netscape Comment: 
                OpenSSL Generated Server Certificate
            X509v3 Subject Key Identifier: 
                BD:7D:86:34:F4:F7:30:27:81:D0:5A:C2:BD:69:13:B5:B4:68:5C:F2
            X509v3 Authority Key Identifier: 
                keyid:52:D5:30:0C:96:18:5A:6F:EA:2A:E6:54:95:62:07:31:C8:0E:9E:40
                DirName:/C=CN/ST=shanghai/L=shanghai/O=hezhong/OU=hezhong/CN=rooteccCA/emailAddress=rooteccCA@160.COM
                serial:10:00:00:00:00

            X509v3 Key Usage: critical
                Digital Signature, Key Encipherment
            X509v3 Extended Key Usage: 
                TLS Web Server Authentication
    Signature Algorithm: ecdsa-with-SHA256
         30:45:02:21:00:e8:f8:bc:25:b4:6b:b9:9f:cc:5f:f9:d9:b9:
         9f:87:ff:fd:08:5e:5c:96:be:9a:38:f1:da:72:3b:8a:ec:be:
         13:02:20:36:68:fb:5e:17:0c:96:83:13:c8:55:f0:79:f4:b3:
         6c:fd:90:4f:37:b3:83:16:bf:ea:47:fc:ec:3e:fc:03:f3
-----BEGIN CERTIFICATE-----
MIIDUDCCAvagAwIBAgIFEAAAAAEwCgYIKoZIzj0EAwIwfjELMAkGA1UEBhMCQ04x
ETAPBgNVBAgMCHNoYW5naGFpMRAwDgYDVQQKDAdoZXpob25nMRAwDgYDVQQLDAdo
ZXpob25nMRQwEgYDVQQDDAtzZWNvbmRlY2NDQTEiMCAGCSqGSIb3DQEJARYTc2Vj
b25kZWNjQ0FAMTYwLmNvbTAeFw0xOTA0MTkwNTQzMDZaFw0yNDA0MTcwNTQzMDZa
MIGAMQswCQYDVQQGEwJDTjERMA8GA1UECAwIc2hhbmdoYWkxEDAOBgNVBAoMB2hl
emhvbmcxEDAOBgNVBAsMB2hlemhvbmcxEzARBgNVBAMMCnRzcF9zZXJ2ZXIxJTAj
BgkqhkiG9w0BCQEWFmVjY190c3Bfc2VydmVyQDE2MC5jb20wWTATBgcqhkjOPQIB
BggqgRzPVQGCLQNCAATgv0sqix/z24s5k0mQRNlOMZ20kwyHi77OwXm0QY4/ihFk
mgZLync1pCjhejW+e5XFzRThMaD5AseXytESFd7to4IBXDCCAVgwCQYDVR0TBAIw
ADARBglghkgBhvhCAQEEBAMCBkAwMwYJYIZIAYb4QgENBCYWJE9wZW5TU0wgR2Vu
ZXJhdGVkIFNlcnZlciBDZXJ0aWZpY2F0ZTAdBgNVHQ4EFgQUvX2GNPT3MCeB0FrC
vWkTtbRoXPIwgb4GA1UdIwSBtjCBs4AUUtUwDJYYWm/qKuZUlWIHMcgOnkChgZOk
gZAwgY0xCzAJBgNVBAYTAkNOMREwDwYDVQQIDAhzaGFuZ2hhaTERMA8GA1UEBwwI
c2hhbmdoYWkxEDAOBgNVBAoMB2hlemhvbmcxEDAOBgNVBAsMB2hlemhvbmcxEjAQ
BgNVBAMMCXJvb3RlY2NDQTEgMB4GCSqGSIb3DQEJARYRcm9vdGVjY0NBQDE2MC5D
T02CBRAAAAAAMA4GA1UdDwEB/wQEAwIFoDATBgNVHSUEDDAKBggrBgEFBQcDATAK
BggqhkjOPQQDAgNIADBFAiEA6Pi8JbRruZ/MX/nZuZ+H//0IXlyWvpo48dpyO4rs
vhMCIDZo+14XDJaDE8hV8Hn0s2z9kE83s4MWv+pH/Ow+/APz
-----END CERTIFICATE-----
